#include <math.h>
#include <stdio.h>
#include <stdlib.h>
#include <string.h>


int main() {
  int n, k, m, s, i;
  scanf("%d%d", &n, &k);
  for (m = s = 1; ; s = ++m) {
    for (i = 0; i < n; ++i)
      if (s % (n - 1)) {
        s = 0;
        break;
      }
      else s = s / (n - 1) * n + k;
      if (s) break;
  }
  printf("%d\n", s);
  return 0;
}